; Function Attrs: mustprogress nounwind uwtable
define hidden void @_ZN22CompactHashtableWriter3addEjj(ptr nocapture noundef nonnull align 8 dereferenceable(56) %0, i32 noundef %1, i32 noundef %2) local_unnamed_addr #0 align 2 {
  %4 = getelementptr inbounds i8, ptr %0, i64 4
  %5 = load i32, ptr %4, align 4
  %6 = urem i32 %1, %5
  %7 = getelementptr inbounds i8, ptr %0, i64 24
  %8 = load ptr, ptr %7, align 8
  %9 = sext i32 %6 to i64
  %10 = getelementptr inbounds ptr, ptr %8, i64 %9
  %11 = load ptr, ptr %10, align 8
  %12 = load i32, ptr %11, align 8
  %13 = icmp sgt i32 %12, 0
  br i1 %13, label %.lr.ph.i.i, label %_ZNK17GrowableArrayViewIN22CompactHashtableWriter5EntryEE8containsERKS1_.exit.thread.i

.lr.ph.i.i:                                       ; preds = %3
  %14 = getelementptr inbounds i8, ptr %11, i64 8
  %15 = load ptr, ptr %14, align 8
  %16 = zext nneg i32 %12 to i64
  %17 = getelementptr inbounds i8, ptr %15, i64 4
  %18 = load i32, ptr %17, align 4
  %19 = icmp eq i32 %18, %2
  %20 = load i32, ptr %15, align 4
  %21 = icmp eq i32 %20, %1
  %22 = select i1 %19, i1 %21, i1 false
  br i1 %22, label %_ZN26GrowableArrayWithAllocatorIN22CompactHashtableWriter5EntryE13GrowableArrayIS1_EE17append_if_missingERKS1_.exit, label %.lr.ph.i

.lr.ph.i:                                         ; preds = %.lr.ph.i.i, %23
  %indvars.iv.i7.i = phi i64 [ %indvars.iv.next.i.i, %23 ], [ 0, %.lr.ph.i.i ]
  %indvars.iv.next.i.i = add nuw nsw i64 %indvars.iv.i7.i, 1
  %exitcond.not.i.i = icmp eq i64 %indvars.iv.next.i.i, %16
  br i1 %exitcond.not.i.i, label %_ZNK17GrowableArrayViewIN22CompactHashtableWriter5EntryEE8containsERKS1_.exit.thread.i, label %23, !llvm.loop !9

23:                                               ; preds = %.lr.ph.i
  %24 = getelementptr inbounds %"class.CompactHashtableWriter::Entry", ptr %15, i64 %indvars.iv.next.i.i
  %25 = getelementptr inbounds i8, ptr %24, i64 4
  %26 = load i32, ptr %25, align 4
  %27 = icmp eq i32 %26, %2
  %28 = load i32, ptr %24, align 4
  %29 = icmp eq i32 %28, %1
  %30 = select i1 %27, i1 %29, i1 false
  br i1 %30, label %_ZNK17GrowableArrayViewIN22CompactHashtableWriter5EntryEE8containsERKS1_.exit.i, label %.lr.ph.i, !llvm.loop !9

_ZNK17GrowableArrayViewIN22CompactHashtableWriter5EntryEE8containsERKS1_.exit.i: ; preds = %23
  %31 = icmp ult i64 %indvars.iv.next.i.i, %16
  br i1 %31, label %_ZN26GrowableArrayWithAllocatorIN22CompactHashtableWriter5EntryE13GrowableArrayIS1_EE17append_if_missingERKS1_.exit, label %_ZNK17GrowableArrayViewIN22CompactHashtableWriter5EntryEE8containsERKS1_.exit.thread.i

_ZNK17GrowableArrayViewIN22CompactHashtableWriter5EntryEE8containsERKS1_.exit.thread.i: ; preds = %.lr.ph.i, %_ZNK17GrowableArrayViewIN22CompactHashtableWriter5EntryEE8containsERKS1_.exit.i, %3
  %32 = getelementptr inbounds i8, ptr %11, i64 4
  %33 = load i32, ptr %32, align 4
  %34 = icmp eq i32 %12, %33
  br i1 %34, label %35, label %_ZN26GrowableArrayWithAllocatorIN22CompactHashtableWriter5EntryE13GrowableArrayIS1_EE6appendERKS1_.exit.i

35:                                               ; preds = %_ZNK17GrowableArrayViewIN22CompactHashtableWriter5EntryEE8containsERKS1_.exit.thread.i
  %36 = add nsw i32 %12, 1
  %37 = icmp sgt i32 %12, -1
  %38 = xor i32 %12, -2147483648
  %39 = and i32 %38, %36
  %40 = icmp eq i32 %39, 0
  %41 = and i1 %37, %40
  %42 = tail call range(i32 0, 33) i32 @llvm.ctlz.i32(i32 %36, i1 true)
  %43 = sub nuw nsw i32 32, %42
  %44 = shl nuw i32 1, %43
  %.0.i.i.i.i.i = select i1 %41, i32 %36, i32 %44
  tail call void @_ZN26GrowableArrayWithAllocatorIN22CompactHashtableWriter5EntryE13GrowableArrayIS1_EE9expand_toEi(ptr noundef nonnull align 8 dereferenceable(16) %11, i32 noundef %.0.i.i.i.i.i)
  %.pre.i.i = load i32, ptr %11, align 8
  br label %_ZN26GrowableArrayWithAllocatorIN22CompactHashtableWriter5EntryE13GrowableArrayIS1_EE6appendERKS1_.exit.i

_ZN26GrowableArrayWithAllocatorIN22CompactHashtableWriter5EntryE13GrowableArrayIS1_EE6appendERKS1_.exit.i: ; preds = %35, %_ZNK17GrowableArrayViewIN22CompactHashtableWriter5EntryEE8containsERKS1_.exit.thread.i
  %45 = phi i32 [ %.pre.i.i, %35 ], [ %12, %_ZNK17GrowableArrayViewIN22CompactHashtableWriter5EntryEE8containsERKS1_.exit.thread.i ]
  %46 = add nsw i32 %45, 1
  store i32 %46, ptr %11, align 8
  %47 = getelementptr inbounds i8, ptr %11, i64 8
  %48 = load ptr, ptr %47, align 8
  %49 = sext i32 %45 to i64
  %50 = getelementptr inbounds %"class.CompactHashtableWriter::Entry", ptr %48, i64 %49
  %.sroa.3.0.insert.ext = zext i32 %2 to i64
  %.sroa.3.0.insert.shift = shl nuw i64 %.sroa.3.0.insert.ext, 32
  %.sroa.0.0.insert.ext = zext i32 %1 to i64
  %.sroa.0.0.insert.insert = or disjoint i64 %.sroa.3.0.insert.shift, %.sroa.0.0.insert.ext
  store i64 %.sroa.0.0.insert.insert, ptr %50, align 4
  br label %_ZN26GrowableArrayWithAllocatorIN22CompactHashtableWriter5EntryE13GrowableArrayIS1_EE17append_if_missingERKS1_.exit

_ZN26GrowableArrayWithAllocatorIN22CompactHashtableWriter5EntryE13GrowableArrayIS1_EE17append_if_missingERKS1_.exit: ; preds = %.lr.ph.i.i, %_ZNK17GrowableArrayViewIN22CompactHashtableWriter5EntryEE8containsERKS1_.exit.i, %_ZN26GrowableArrayWithAllocatorIN22CompactHashtableWriter5EntryE13GrowableArrayIS1_EE6appendERKS1_.exit.i
  %51 = load i32, ptr %0, align 8
  %52 = add nsw i32 %51, 1
  store i32 %52, ptr %0, align 8
  ret void
}